target datalayout = "e-m:e-p270:32:32-p271:32:32-p272:64:64-i64:64-i128:128-f80:128-n8:16:32:64-S128"
target triple = "x86_64-pc-linux-gnu"

%struct.tsi_handshaker = type { ptr, i8, i8, i8 }
%struct.tsi_handshaker_vtable = type { ptr, ptr, ptr, ptr, ptr, ptr, ptr, ptr }

; Function Attrs: mustprogress uwtable
define noundef i32 @_Z25tsi_handshaker_get_resultP14tsi_handshaker(ptr noundef %0) #5 {
  %2 = alloca i32, align 4
  %3 = alloca ptr, align 8
  store ptr %0, ptr %3, align 8, !tbaa !24
  %4 = load ptr, ptr %3, align 8, !tbaa !24
  %5 = icmp eq ptr %4, null
  br i1 %5, label %11, label %6

6:                                                ; preds = %1
  %7 = load ptr, ptr %3, align 8, !tbaa !24
  %8 = getelementptr inbounds nuw %struct.tsi_handshaker, ptr %7, i32 0, i32 0
  %9 = load ptr, ptr %8, align 8, !tbaa !26
  %10 = icmp eq ptr %9, null
  br i1 %10, label %11, label %12

11:                                               ; preds = %6, %1
  store i32 2, ptr %2, align 4
  br label %40

12:                                               ; preds = %6
  %13 = load ptr, ptr %3, align 8, !tbaa !24
  %14 = getelementptr inbounds nuw %struct.tsi_handshaker, ptr %13, i32 0, i32 1
  %15 = load i8, ptr %14, align 8, !tbaa !30, !range !31, !noundef !32
  %16 = trunc i8 %15 to i1
  br i1 %16, label %17, label %18

17:                                               ; preds = %12
  store i32 5, ptr %2, align 4
  br label %40

18:                                               ; preds = %12
  %19 = load ptr, ptr %3, align 8, !tbaa !24
  %20 = getelementptr inbounds nuw %struct.tsi_handshaker, ptr %19, i32 0, i32 3
  %21 = load i8, ptr %20, align 2, !tbaa !33, !range !31, !noundef !32
  %22 = trunc i8 %21 to i1
  br i1 %22, label %23, label %24

23:                                               ; preds = %18
  store i32 14, ptr %2, align 4
  br label %40

24:                                               ; preds = %18
  %25 = load ptr, ptr %3, align 8, !tbaa !24
  %26 = getelementptr inbounds nuw %struct.tsi_handshaker, ptr %25, i32 0, i32 0
  %27 = load ptr, ptr %26, align 8, !tbaa !26
  %28 = getelementptr inbounds nuw %struct.tsi_handshaker_vtable, ptr %27, i32 0, i32 2
  %29 = load ptr, ptr %28, align 8, !tbaa !37
  %30 = icmp eq ptr %29, null
  br i1 %30, label %31, label %32

31:                                               ; preds = %24
  store i32 6, ptr %2, align 4
  br label %40

32:                                               ; preds = %24
  %33 = load ptr, ptr %3, align 8, !tbaa !24
  %34 = getelementptr inbounds nuw %struct.tsi_handshaker, ptr %33, i32 0, i32 0
  %35 = load ptr, ptr %34, align 8, !tbaa !26
  %36 = getelementptr inbounds nuw %struct.tsi_handshaker_vtable, ptr %35, i32 0, i32 2
  %37 = load ptr, ptr %36, align 8, !tbaa !37
  %38 = load ptr, ptr %3, align 8, !tbaa !24
  %39 = call noundef i32 %37(ptr noundef %38)
  store i32 %39, ptr %2, align 4
  br label %40

40:                                               ; preds = %32, %31, %23, %17, %11
  %41 = load i32, ptr %2, align 4
  ret i32 %41
}

; Function Attrs: mustprogress uwtable
define noundef i32 @_Z37tsi_handshaker_create_frame_protectorP14tsi_handshakerPmPP19tsi_frame_protector(ptr noundef %0, ptr noundef %1, ptr noundef %2) #5 {
  %4 = alloca i32, align 4
  %5 = alloca ptr, align 8
  %6 = alloca ptr, align 8
  %7 = alloca ptr, align 8
  %8 = alloca i32, align 4
  %9 = alloca i32, align 4
  store ptr %0, ptr %5, align 8, !tbaa !24
  store ptr %1, ptr %6, align 8, !tbaa !14
  store ptr %2, ptr %7, align 8, !tbaa !41
  call void @llvm.lifetime.start.p0(i64 4, ptr %8) #3
  %10 = load ptr, ptr %5, align 8, !tbaa !24
  %11 = icmp eq ptr %10, null
  br i1 %11, label %20, label %12

12:                                               ; preds = %3
  %13 = load ptr, ptr %5, align 8, !tbaa !24
  %14 = getelementptr inbounds nuw %struct.tsi_handshaker, ptr %13, i32 0, i32 0
  %15 = load ptr, ptr %14, align 8, !tbaa !26
  %16 = icmp eq ptr %15, null
  br i1 %16, label %20, label %17

17:                                               ; preds = %12
  %18 = load ptr, ptr %7, align 8, !tbaa !41
  %19 = icmp eq ptr %18, null
  br i1 %19, label %20, label %21

20:                                               ; preds = %17, %12, %3
  store i32 2, ptr %4, align 4
  store i32 1, ptr %9, align 4
  br label %63

21:                                               ; preds = %17
  %22 = load ptr, ptr %5, align 8, !tbaa !24
  %23 = getelementptr inbounds nuw %struct.tsi_handshaker, ptr %22, i32 0, i32 1
  %24 = load i8, ptr %23, align 8, !tbaa !30, !range !31, !noundef !32
  %25 = trunc i8 %24 to i1
  br i1 %25, label %26, label %27

26:                                               ; preds = %21
  store i32 5, ptr %4, align 4
  store i32 1, ptr %9, align 4
  br label %63

27:                                               ; preds = %21
  %28 = load ptr, ptr %5, align 8, !tbaa !24
  %29 = getelementptr inbounds nuw %struct.tsi_handshaker, ptr %28, i32 0, i32 3
  %30 = load i8, ptr %29, align 2, !tbaa !33, !range !31, !noundef !32
  %31 = trunc i8 %30 to i1
  br i1 %31, label %32, label %33

32:                                               ; preds = %27
  store i32 14, ptr %4, align 4
  store i32 1, ptr %9, align 4
  br label %63

33:                                               ; preds = %27
  %34 = load ptr, ptr %5, align 8, !tbaa !24
  %35 = call noundef i32 @_Z25tsi_handshaker_get_resultP14tsi_handshaker(ptr noundef %34)
  %36 = icmp ne i32 %35, 0
  br i1 %36, label %37, label %38

37:                                               ; preds = %33
  store i32 5, ptr %4, align 4
  store i32 1, ptr %9, align 4
  br label %63

38:                                               ; preds = %33
  %39 = load ptr, ptr %5, align 8, !tbaa !24
  %40 = getelementptr inbounds nuw %struct.tsi_handshaker, ptr %39, i32 0, i32 0
  %41 = load ptr, ptr %40, align 8, !tbaa !26
  %42 = getelementptr inbounds nuw %struct.tsi_handshaker_vtable, ptr %41, i32 0, i32 4
  %43 = load ptr, ptr %42, align 8, !tbaa !44
  %44 = icmp eq ptr %43, null
  br i1 %44, label %45, label %46

45:                                               ; preds = %38
  store i32 6, ptr %4, align 4
  store i32 1, ptr %9, align 4
  br label %63

46:                                               ; preds = %38
  %47 = load ptr, ptr %5, align 8, !tbaa !24
  %48 = getelementptr inbounds nuw %struct.tsi_handshaker, ptr %47, i32 0, i32 0
  %49 = load ptr, ptr %48, align 8, !tbaa !26
  %50 = getelementptr inbounds nuw %struct.tsi_handshaker_vtable, ptr %49, i32 0, i32 4
  %51 = load ptr, ptr %50, align 8, !tbaa !44
  %52 = load ptr, ptr %5, align 8, !tbaa !24
  %53 = load ptr, ptr %6, align 8, !tbaa !14
  %54 = load ptr, ptr %7, align 8, !tbaa !41
  %55 = call noundef i32 %51(ptr noundef %52, ptr noundef %53, ptr noundef %54)
  store i32 %55, ptr %8, align 4, !tbaa !3
  %56 = load i32, ptr %8, align 4, !tbaa !3
  %57 = icmp eq i32 %56, 0
  br i1 %57, label %58, label %61

58:                                               ; preds = %46
  %59 = load ptr, ptr %5, align 8, !tbaa !24
  %60 = getelementptr inbounds nuw %struct.tsi_handshaker, ptr %59, i32 0, i32 1
  store i8 1, ptr %60, align 8, !tbaa !30
  br label %61

61:                                               ; preds = %58, %46
  %62 = load i32, ptr %8, align 4, !tbaa !3
  store i32 %62, ptr %4, align 4
  store i32 1, ptr %9, align 4
  br label %63

63:                                               ; preds = %61, %45, %37, %32, %26, %20
  call void @llvm.lifetime.end.p0(i64 4, ptr %8) #3
  %64 = load i32, ptr %4, align 4
  ret i32 %64
}