; Function Attrs: mustprogress uwtable
define noundef i32 @_Z37tsi_handshaker_create_frame_protectorP14tsi_handshakerPmPP19tsi_frame_protector(ptr noundef %0, ptr noundef %1, ptr noundef %2) local_unnamed_addr #4 {
  %4 = icmp eq ptr %0, null
  br i1 %4, label %_Z25tsi_handshaker_get_resultP14tsi_handshaker.exit.thread, label %5

5:                                                ; preds = %3
  %6 = load ptr, ptr %0, align 8, !tbaa !14
  %7 = icmp eq ptr %6, null
  %8 = icmp eq ptr %2, null
  %or.cond = or i1 %8, %7
  br i1 %or.cond, label %_Z25tsi_handshaker_get_resultP14tsi_handshaker.exit.thread, label %9

9:                                                ; preds = %5
  %10 = getelementptr inbounds nuw i8, ptr %0, i64 8
  %11 = load i8, ptr %10, align 8, !tbaa !18, !range !19, !noundef !20
  %12 = trunc nuw i8 %11 to i1
  br i1 %12, label %_Z25tsi_handshaker_get_resultP14tsi_handshaker.exit.thread, label %13

13:                                               ; preds = %9
  %14 = getelementptr inbounds nuw i8, ptr %0, i64 10
  %15 = load i8, ptr %14, align 2, !tbaa !21, !range !19, !noundef !20
  %16 = trunc nuw i8 %15 to i1
  br i1 %16, label %_Z25tsi_handshaker_get_resultP14tsi_handshaker.exit.thread, label %17

17:                                               ; preds = %13
  %18 = getelementptr inbounds nuw i8, ptr %6, i64 16
  %19 = load ptr, ptr %18, align 8, !tbaa !25
  %20 = icmp eq ptr %19, null
  br i1 %20, label %_Z25tsi_handshaker_get_resultP14tsi_handshaker.exit.thread, label %_Z25tsi_handshaker_get_resultP14tsi_handshaker.exit

_Z25tsi_handshaker_get_resultP14tsi_handshaker.exit: ; preds = %17
  %21 = tail call noundef i32 %19(ptr noundef nonnull %0)
  %.not = icmp eq i32 %21, 0
  br i1 %.not, label %22, label %_Z25tsi_handshaker_get_resultP14tsi_handshaker.exit.thread

22:                                               ; preds = %_Z25tsi_handshaker_get_resultP14tsi_handshaker.exit
  %23 = load ptr, ptr %0, align 8, !tbaa !14
  %24 = getelementptr inbounds nuw i8, ptr %23, i64 32
  %25 = load ptr, ptr %24, align 8, !tbaa !27
  %26 = icmp eq ptr %25, null
  br i1 %26, label %_Z25tsi_handshaker_get_resultP14tsi_handshaker.exit.thread, label %27

27:                                               ; preds = %22
  %28 = tail call noundef i32 %25(ptr noundef nonnull %0, ptr noundef %1, ptr noundef nonnull %2)
  %29 = icmp eq i32 %28, 0
  br i1 %29, label %30, label %_Z25tsi_handshaker_get_resultP14tsi_handshaker.exit.thread

30:                                               ; preds = %27
  store i8 1, ptr %10, align 8, !tbaa !18
  br label %_Z25tsi_handshaker_get_resultP14tsi_handshaker.exit.thread

_Z25tsi_handshaker_get_resultP14tsi_handshaker.exit.thread: ; preds = %17, %27, %30, %22, %_Z25tsi_handshaker_get_resultP14tsi_handshaker.exit, %13, %9, %3, %5
  %.0 = phi i32 [ 2, %5 ], [ 2, %3 ], [ 5, %9 ], [ 14, %13 ], [ 5, %_Z25tsi_handshaker_get_resultP14tsi_handshaker.exit ], [ 6, %22 ], [ 0, %30 ], [ %28, %27 ], [ 5, %17 ]
  ret i32 %.0
}